target datalayout = "e-m:e-p270:32:32-p271:32:32-p272:64:64-i64:64-i128:128-f80:128-n8:16:32:64-S128"
target triple = "x86_64-pc-linux-gnu"

%struct._zend_refcounted_h = type { i32, %union.anon }
%union.anon = type { i32 }
%struct.url_adapt_state_ex_t = type { %struct.smart_str, %struct.smart_str, %struct.smart_str, %struct.smart_str, %struct.smart_str, %struct.smart_str, %struct.smart_str, i32, ptr, i32, i32, %struct.smart_str, i32, i32, ptr }
%struct.smart_str = type { ptr, i64 }
%struct._zend_string = type { %struct._zend_refcounted_h, i64, i64, [1 x i8] }

@.str.16 = private unnamed_addr constant [7 x i8] c"action\00", align 1

; Function Attrs: nounwind uwtable
define internal void @handle_arg(ptr noundef %0, ptr noundef %1, ptr noundef %2) #0 {
  %4 = alloca ptr, align 8
  %5 = alloca i64, align 8
  %6 = alloca i8, align 1
  %7 = alloca ptr, align 8
  %8 = alloca ptr, align 8
  %9 = alloca i64, align 8
  %10 = alloca i8, align 1
  %11 = alloca i64, align 8
  %12 = alloca ptr, align 8
  %13 = alloca ptr, align 8
  %14 = alloca i64, align 8
  %15 = alloca ptr, align 8
  %16 = alloca ptr, align 8
  %17 = alloca ptr, align 8
  store ptr %0, ptr %15, align 8
  store ptr %1, ptr %16, align 8
  store ptr %2, ptr %17, align 8
  %18 = load ptr, ptr %15, align 8
  %19 = getelementptr inbounds %struct.url_adapt_state_ex_t, ptr %18, i32 0, i32 1
  %20 = getelementptr inbounds %struct.smart_str, ptr %19, i32 0, i32 0
  %21 = load ptr, ptr %20, align 8
  %22 = icmp ne ptr %21, null
  br i1 %22, label %23, label %29

23:                                               ; preds = %3
  %24 = load ptr, ptr %15, align 8
  %25 = getelementptr inbounds %struct.url_adapt_state_ex_t, ptr %24, i32 0, i32 1
  %26 = getelementptr inbounds %struct.smart_str, ptr %25, i32 0, i32 0
  %27 = load ptr, ptr %26, align 8
  %28 = getelementptr inbounds %struct._zend_string, ptr %27, i32 0, i32 2
  store i64 0, ptr %28, align 8
  br label %29

29:                                               ; preds = %23, %3
  %30 = load ptr, ptr %15, align 8
  %31 = getelementptr inbounds %struct.url_adapt_state_ex_t, ptr %30, i32 0, i32 1
  %32 = load ptr, ptr %16, align 8
  %33 = load ptr, ptr %17, align 8
  %34 = load ptr, ptr %16, align 8
  %35 = ptrtoint ptr %33 to i64
  %36 = ptrtoint ptr %34 to i64
  %37 = sub i64 %35, %36
  store ptr %31, ptr %12, align 8
  store ptr %32, ptr %13, align 8
  store i64 %37, ptr %14, align 8
  %38 = load ptr, ptr %12, align 8
  %39 = load ptr, ptr %13, align 8
  %40 = load i64, ptr %14, align 8
  store ptr %38, ptr %7, align 8
  store ptr %39, ptr %8, align 8
  store i64 %40, ptr %9, align 8
  store i8 0, ptr %10, align 1
  %41 = load ptr, ptr %7, align 8
  %42 = load i64, ptr %9, align 8
  %43 = load i8, ptr %10, align 1
  %44 = trunc i8 %43 to i1
  store ptr %41, ptr %4, align 8
  store i64 %42, ptr %5, align 8
  %45 = zext i1 %44 to i8
  store i8 %45, ptr %6, align 1
  %46 = load ptr, ptr %4, align 8
  %47 = load ptr, ptr %46, align 8
  %48 = icmp ne ptr %47, null
  %49 = xor i1 %48, true
  br i1 %49, label %50, label %51

50:                                               ; preds = %29
  br label %64

51:                                               ; preds = %29
  %52 = load ptr, ptr %4, align 8
  %53 = load ptr, ptr %52, align 8
  %54 = getelementptr inbounds %struct._zend_string, ptr %53, i32 0, i32 2
  %55 = load i64, ptr %54, align 8
  %56 = load i64, ptr %5, align 8
  %57 = add i64 %56, %55
  store i64 %57, ptr %5, align 8
  %58 = load i64, ptr %5, align 8
  %59 = load ptr, ptr %4, align 8
  %60 = getelementptr inbounds %struct.smart_str, ptr %59, i32 0, i32 1
  %61 = load i64, ptr %60, align 8
  %62 = icmp uge i64 %58, %61
  br i1 %62, label %63, label %74

63:                                               ; preds = %51
  br label %64

64:                                               ; preds = %63, %50
  %65 = load i8, ptr %6, align 1
  %66 = trunc i8 %65 to i1
  br i1 %66, label %67, label %70

67:                                               ; preds = %64
  %68 = load ptr, ptr %4, align 8
  %69 = load i64, ptr %5, align 8
  call void @smart_str_realloc(ptr noundef %68, i64 noundef %69) #10
  br label %73

70:                                               ; preds = %64
  %71 = load ptr, ptr %4, align 8
  %72 = load i64, ptr %5, align 8
  call void @smart_str_erealloc(ptr noundef %71, i64 noundef %72) #10
  br label %73

73:                                               ; preds = %70, %67
  br label %74

74:                                               ; preds = %73, %51
  %75 = load i64, ptr %5, align 8
  store i64 %75, ptr %11, align 8
  %76 = load ptr, ptr %7, align 8
  %77 = load ptr, ptr %76, align 8
  %78 = getelementptr inbounds %struct._zend_string, ptr %77, i32 0, i32 3
  %79 = load ptr, ptr %7, align 8
  %80 = load ptr, ptr %79, align 8
  %81 = getelementptr inbounds %struct._zend_string, ptr %80, i32 0, i32 2
  %82 = load i64, ptr %81, align 8
  %83 = getelementptr inbounds i8, ptr %78, i64 %82
  %84 = load ptr, ptr %8, align 8
  %85 = load i64, ptr %9, align 8
  call void @llvm.memcpy.p0.p0.i64(ptr align 1 %83, ptr align 1 %84, i64 %85, i1 false)
  %86 = load i64, ptr %11, align 8
  %87 = load ptr, ptr %7, align 8
  %88 = load ptr, ptr %87, align 8
  %89 = getelementptr inbounds %struct._zend_string, ptr %88, i32 0, i32 2
  store i64 %86, ptr %89, align 8
  %90 = load ptr, ptr %15, align 8
  %91 = getelementptr inbounds %struct.url_adapt_state_ex_t, ptr %90, i32 0, i32 12
  %92 = load i32, ptr %91, align 8
  %93 = icmp eq i32 %92, 1
  br i1 %93, label %94, label %112

94:                                               ; preds = %74
  %95 = load ptr, ptr %15, align 8
  %96 = getelementptr inbounds %struct.url_adapt_state_ex_t, ptr %95, i32 0, i32 1
  %97 = getelementptr inbounds %struct.smart_str, ptr %96, i32 0, i32 0
  %98 = load ptr, ptr %97, align 8
  %99 = getelementptr inbounds %struct._zend_string, ptr %98, i32 0, i32 3
  %100 = getelementptr inbounds [1 x i8], ptr %99, i64 0, i64 0
  %101 = load ptr, ptr %15, align 8
  %102 = getelementptr inbounds %struct.url_adapt_state_ex_t, ptr %101, i32 0, i32 1
  %103 = getelementptr inbounds %struct.smart_str, ptr %102, i32 0, i32 0
  %104 = load ptr, ptr %103, align 8
  %105 = getelementptr inbounds %struct._zend_string, ptr %104, i32 0, i32 2
  %106 = load i64, ptr %105, align 8
  %107 = call i32 @strncasecmp(ptr noundef %100, ptr noundef @.str.16, i64 noundef %106) #11
  %108 = icmp eq i32 %107, 0
  br i1 %108, label %109, label %112

109:                                              ; preds = %94
  %110 = load ptr, ptr %15, align 8
  %111 = getelementptr inbounds %struct.url_adapt_state_ex_t, ptr %110, i32 0, i32 13
  store i32 1, ptr %111, align 4
  br label %115

112:                                              ; preds = %94, %74
  %113 = load ptr, ptr %15, align 8
  %114 = getelementptr inbounds %struct.url_adapt_state_ex_t, ptr %113, i32 0, i32 13
  store i32 0, ptr %114, align 4
  br label %115

115:                                              ; preds = %112, %109
  ret void
}