; Function Attrs: nounwind uwtable
define internal fastcc void @handle_arg(ptr noundef %0, ptr noundef %1, ptr noundef %2) unnamed_addr #0 {
  %4 = getelementptr inbounds i8, ptr %0, i64 16
  %5 = load ptr, ptr %4, align 8
  %.not = icmp eq ptr %5, null
  br i1 %.not, label %.thread, label %9

.thread:                                          ; preds = %3
  %6 = ptrtoint ptr %2 to i64
  %7 = ptrtoint ptr %1 to i64
  %8 = sub i64 %6, %7
  br label %20

9:                                                ; preds = %3
  %10 = getelementptr inbounds i8, ptr %5, i64 16
  store i64 0, ptr %10, align 8
  %.pr = load ptr, ptr %4, align 8
  %11 = ptrtoint ptr %2 to i64
  %12 = ptrtoint ptr %1 to i64
  %13 = sub i64 %11, %12
  %.not36 = icmp eq ptr %.pr, null
  br i1 %.not36, label %20, label %14

14:                                               ; preds = %9
  %15 = getelementptr inbounds i8, ptr %.pr, i64 16
  %16 = load i64, ptr %15, align 8
  %17 = add i64 %16, %13
  %18 = getelementptr inbounds i8, ptr %0, i64 24
  %19 = load i64, ptr %18, align 8
  %.not37 = icmp ult i64 %17, %19
  br i1 %.not37, label %22, label %20

20:                                               ; preds = %.thread, %9, %14
  %21 = phi i64 [ %13, %9 ], [ %13, %14 ], [ %8, %.thread ]
  %.0 = phi i64 [ %13, %9 ], [ %17, %14 ], [ %8, %.thread ]
  tail call void @smart_str_erealloc(ptr noundef nonnull %4, i64 noundef %.0) #16
  %.pre = load ptr, ptr %4, align 8
  %.phi.trans.insert = getelementptr inbounds i8, ptr %.pre, i64 16
  %.pre39 = load i64, ptr %.phi.trans.insert, align 8
  br label %22

22:                                               ; preds = %20, %14
  %23 = phi i64 [ %.pre39, %20 ], [ %16, %14 ]
  %24 = phi ptr [ %.pre, %20 ], [ %.pr, %14 ]
  %25 = phi i64 [ %21, %20 ], [ %13, %14 ]
  %.1 = phi i64 [ %.0, %20 ], [ %17, %14 ]
  %26 = getelementptr inbounds i8, ptr %24, i64 24
  %27 = getelementptr inbounds i8, ptr %26, i64 %23
  tail call void @llvm.memcpy.p0.p0.i64(ptr nonnull align 1 %27, ptr align 1 %1, i64 %25, i1 false)
  %28 = load ptr, ptr %4, align 8
  %29 = getelementptr inbounds i8, ptr %28, i64 16
  store i64 %.1, ptr %29, align 8
  %30 = getelementptr inbounds i8, ptr %0, i64 152
  %31 = load i32, ptr %30, align 8
  %32 = icmp eq i32 %31, 1
  br i1 %32, label %33, label %40

33:                                               ; preds = %22
  %34 = load ptr, ptr %4, align 8
  %35 = getelementptr inbounds i8, ptr %34, i64 24
  %36 = getelementptr inbounds i8, ptr %34, i64 16
  %37 = load i64, ptr %36, align 8
  %38 = tail call i32 @strncasecmp(ptr noundef nonnull %35, ptr noundef nonnull @.str.16, i64 noundef %37) #17
  %39 = icmp eq i32 %38, 0
  br i1 %39, label %41, label %40

40:                                               ; preds = %33, %22
  br label %41

41:                                               ; preds = %33, %40
  %.sink = phi i32 [ 0, %40 ], [ 1, %33 ]
  %42 = getelementptr inbounds i8, ptr %0, i64 156
  store i32 %.sink, ptr %42, align 4
  ret void
}